target datalayout = "e-m:e-p270:32:32-p271:32:32-p272:64:64-i64:64-i128:128-f80:128-n8:16:32:64-S128"
target triple = "x86_64-unknown-linux-gnu"

%"class.std::_Sp_counted_base" = type { ptr, i32, i32 }
%"class.std::_Sp_counted_ptr_inplace" = type { %"class.std::_Sp_counted_base", %"class.std::_Sp_counted_ptr_inplace<OpenColorIO_v2_4dev::(anonymous namespace)::AllocationNoOp, std::allocator<void>, __gnu_cxx::_S_atomic>::_Impl" }
%"class.std::_Sp_counted_ptr_inplace<OpenColorIO_v2_4dev::(anonymous namespace)::AllocationNoOp, std::allocator<void>, __gnu_cxx::_S_atomic>::_Impl" = type { %"struct.__gnu_cxx::__aligned_buffer" }
%"struct.__gnu_cxx::__aligned_buffer" = type { %"union.std::aligned_storage<56, 8>::type" }
%"union.std::aligned_storage<56, 8>::type" = type { [56 x i8] }
%"class.std::type_info" = type { ptr, ptr }

@_ZTISt19_Sp_make_shared_tag = linkonce_odr constant { ptr, ptr } { ptr getelementptr inbounds (ptr, ptr @_ZTVN10__cxxabiv117__class_type_infoE, i64 2), ptr @_ZTSSt19_Sp_make_shared_tag }, comdat, align 8
@_ZZNSt19_Sp_make_shared_tag5_S_tiEvE5__tag = linkonce_odr constant [16 x i8] zeroinitializer, comdat, align 8

; Function Attrs: mustprogress nounwind uwtable
define internal noundef ptr @_ZN9__gnu_cxx16__aligned_bufferIN19OpenColorIO_v2_4dev12_GLOBAL__N_114AllocationNoOpEE7_M_addrEv(ptr noundef nonnull align 8 dereferenceable(56) %this) #5 align 2 {
entry:
  %this.addr = alloca ptr, align 8
  store ptr %this, ptr %this.addr, align 8
  %this1 = load ptr, ptr %this.addr, align 8
  %_M_storage = getelementptr inbounds %"struct.__gnu_cxx::__aligned_buffer", ptr %this1, i32 0, i32 0
  ret ptr %_M_storage
}

; Function Attrs: mustprogress nounwind uwtable
define linkonce_odr hidden noundef ptr @_ZNKSt9type_info4nameEv(ptr noundef nonnull align 8 dereferenceable(16) %this) #5 comdat align 2 {
entry:
  %this.addr = alloca ptr, align 8
  store ptr %this, ptr %this.addr, align 8
  %this1 = load ptr, ptr %this.addr, align 8
  %__name = getelementptr inbounds %"class.std::type_info", ptr %this1, i32 0, i32 1
  %0 = load ptr, ptr %__name, align 8
  %arrayidx = getelementptr inbounds i8, ptr %0, i64 0
  %1 = load i8, ptr %arrayidx, align 1
  %conv = sext i8 %1 to i32
  %cmp = icmp eq i32 %conv, 42
  br i1 %cmp, label %cond.true, label %cond.false

cond.true:                                        ; preds = %entry
  %__name2 = getelementptr inbounds %"class.std::type_info", ptr %this1, i32 0, i32 1
  %2 = load ptr, ptr %__name2, align 8
  %add.ptr = getelementptr inbounds i8, ptr %2, i64 1
  br label %cond.end

cond.false:                                       ; preds = %entry
  %__name3 = getelementptr inbounds %"class.std::type_info", ptr %this1, i32 0, i32 1
  %3 = load ptr, ptr %__name3, align 8
  br label %cond.end

cond.end:                                         ; preds = %cond.false, %cond.true
  %cond = phi ptr [ %add.ptr, %cond.true ], [ %3, %cond.false ]
  ret ptr %cond
}

; Function Attrs: mustprogress nounwind uwtable
define internal noundef ptr @_ZN9__gnu_cxx16__aligned_bufferIN19OpenColorIO_v2_4dev12_GLOBAL__N_114AllocationNoOpEE6_M_ptrEv(ptr noundef nonnull align 8 dereferenceable(56) %this) #5 align 2 {
entry:
  %this.addr = alloca ptr, align 8
  store ptr %this, ptr %this.addr, align 8
  %this1 = load ptr, ptr %this.addr, align 8
  %call = call noundef ptr @_ZN9__gnu_cxx16__aligned_bufferIN19OpenColorIO_v2_4dev12_GLOBAL__N_114AllocationNoOpEE7_M_addrEv(ptr noundef nonnull align 8 dereferenceable(56) %this1) #3
  ret ptr %call
}

; Function Attrs: mustprogress nounwind uwtable
define linkonce_odr hidden noundef zeroext i1 @_ZNKSt9type_infoeqERKS_(ptr noundef nonnull align 8 dereferenceable(16) %this, ptr noundef nonnull align 8 dereferenceable(16) %__arg) #5 comdat align 2 {
entry:
  %retval = alloca i1, align 1
  %this.addr = alloca ptr, align 8
  %__arg.addr = alloca ptr, align 8
  store ptr %this, ptr %this.addr, align 8
  store ptr %__arg, ptr %__arg.addr, align 8
  %this1 = load ptr, ptr %this.addr, align 8
  %__name = getelementptr inbounds %"class.std::type_info", ptr %this1, i32 0, i32 1
  %0 = load ptr, ptr %__name, align 8
  %1 = load ptr, ptr %__arg.addr, align 8
  %__name2 = getelementptr inbounds %"class.std::type_info", ptr %1, i32 0, i32 1
  %2 = load ptr, ptr %__name2, align 8
  %cmp = icmp eq ptr %0, %2
  br i1 %cmp, label %if.then, label %if.end

if.then:                                          ; preds = %entry
  store i1 true, ptr %retval, align 1
  br label %return

if.end:                                           ; preds = %entry
  %__name3 = getelementptr inbounds %"class.std::type_info", ptr %this1, i32 0, i32 1
  %3 = load ptr, ptr %__name3, align 8
  %arrayidx = getelementptr inbounds i8, ptr %3, i64 0
  %4 = load i8, ptr %arrayidx, align 1
  %conv = sext i8 %4 to i32
  %cmp4 = icmp ne i32 %conv, 42
  br i1 %cmp4, label %land.rhs, label %land.end

land.rhs:                                         ; preds = %if.end
  %__name5 = getelementptr inbounds %"class.std::type_info", ptr %this1, i32 0, i32 1
  %5 = load ptr, ptr %__name5, align 8
  %6 = load ptr, ptr %__arg.addr, align 8
  %call = call noundef ptr @_ZNKSt9type_info4nameEv(ptr noundef nonnull align 8 dereferenceable(16) %6) #3
  %call6 = call i32 @strcmp(ptr noundef %5, ptr noundef %call) #3
  %cmp7 = icmp eq i32 %call6, 0
  br label %land.end

land.end:                                         ; preds = %land.rhs, %if.end
  %7 = phi i1 [ false, %if.end ], [ %cmp7, %land.rhs ]
  store i1 %7, ptr %retval, align 1
  br label %return

return:                                           ; preds = %land.end, %if.then
  %8 = load i1, ptr %retval, align 1
  ret i1 %8
}

; Function Attrs: mustprogress nounwind uwtable
define linkonce_odr noundef nonnull align 8 dereferenceable(16) ptr @_ZNSt19_Sp_make_shared_tag5_S_tiEv() #5 comdat align 2 {
entry:
  ret ptr @_ZZNSt19_Sp_make_shared_tag5_S_tiEvE5__tag
}

; Function Attrs: mustprogress nounwind uwtable
define internal noundef ptr @_ZNSt23_Sp_counted_ptr_inplaceIN19OpenColorIO_v2_4dev12_GLOBAL__N_114AllocationNoOpESaIvELN9__gnu_cxx12_Lock_policyE2EE6_M_ptrEv(ptr noundef nonnull align 8 dereferenceable(72) %this) #5 align 2 {
entry:
  %this.addr = alloca ptr, align 8
  store ptr %this, ptr %this.addr, align 8
  %this1 = load ptr, ptr %this.addr, align 8
  %_M_impl = getelementptr inbounds %"class.std::_Sp_counted_ptr_inplace", ptr %this1, i32 0, i32 1
  %_M_storage = getelementptr inbounds %"class.std::_Sp_counted_ptr_inplace<OpenColorIO_v2_4dev::(anonymous namespace)::AllocationNoOp, std::allocator<void>, __gnu_cxx::_S_atomic>::_Impl", ptr %_M_impl, i32 0, i32 0
  %call = call noundef ptr @_ZN9__gnu_cxx16__aligned_bufferIN19OpenColorIO_v2_4dev12_GLOBAL__N_114AllocationNoOpEE6_M_ptrEv(ptr noundef nonnull align 8 dereferenceable(56) %_M_storage) #3
  ret ptr %call
}

; Function Attrs: mustprogress nounwind uwtable
define internal noundef ptr @_ZNSt23_Sp_counted_ptr_inplaceIN19OpenColorIO_v2_4dev12_GLOBAL__N_114AllocationNoOpESaIvELN9__gnu_cxx12_Lock_policyE2EE14_M_get_deleterERKSt9type_info(ptr noundef nonnull align 8 dereferenceable(72) %this, ptr noundef nonnull align 8 dereferenceable(16) %__ti) unnamed_addr #5 align 2 {
entry:
  %retval = alloca ptr, align 8
  %this.addr = alloca ptr, align 8
  %__ti.addr = alloca ptr, align 8
  %__ptr = alloca ptr, align 8
  store ptr %this, ptr %this.addr, align 8
  store ptr %__ti, ptr %__ti.addr, align 8
  %this1 = load ptr, ptr %this.addr, align 8
  %call = call noundef ptr @_ZNSt23_Sp_counted_ptr_inplaceIN19OpenColorIO_v2_4dev12_GLOBAL__N_114AllocationNoOpESaIvELN9__gnu_cxx12_Lock_policyE2EE6_M_ptrEv(ptr noundef nonnull align 8 dereferenceable(72) %this1) #3
  store ptr %call, ptr %__ptr, align 8
  %0 = load ptr, ptr %__ti.addr, align 8
  %call2 = call noundef nonnull align 8 dereferenceable(16) ptr @_ZNSt19_Sp_make_shared_tag5_S_tiEv() #3
  %cmp = icmp eq ptr %0, %call2
  br i1 %cmp, label %if.then, label %lor.lhs.false

lor.lhs.false:                                    ; preds = %entry
  %1 = load ptr, ptr %__ti.addr, align 8
  %call3 = call noundef zeroext i1 @_ZNKSt9type_infoeqERKS_(ptr noundef nonnull align 8 dereferenceable(16) %1, ptr noundef nonnull align 8 dereferenceable(16) @_ZTISt19_Sp_make_shared_tag) #3
  br i1 %call3, label %if.then, label %if.end

if.then:                                          ; preds = %lor.lhs.false, %entry
  %2 = load ptr, ptr %__ptr, align 8
  store ptr %2, ptr %retval, align 8
  br label %return

if.end:                                           ; preds = %lor.lhs.false
  store ptr null, ptr %retval, align 8
  br label %return

return:                                           ; preds = %if.end, %if.then
  %3 = load ptr, ptr %retval, align 8
  ret ptr %3
}